; Function Attrs: mustprogress uwtable
define void @_ZN24SaveMeshAttributesDialog14checkAndEnableEP9QCheckBoxiii(ptr nocapture noundef nonnull readonly align 8 dereferenceable(144) %0, ptr noundef %1, i32 noundef %2, i32 noundef %3, i32 noundef %4) local_unnamed_addr #9 align 2 {
  %6 = and i32 %3, %2
  %7 = icmp eq i32 %6, 0
  br i1 %7, label %_ZN24SaveMeshAttributesDialog15shouldBeEnabledEiii.exit, label %8

8:                                                ; preds = %5
  %9 = tail call noundef i32 @_ZN9MeshModel5io2mmEi(i32 noundef %2)
  %10 = getelementptr inbounds i8, ptr %0, i64 56
  %11 = load ptr, ptr %10, align 8
  %12 = tail call noundef zeroext i1 @_ZNK9MeshModel11hasDataMaskEi(ptr noundef nonnull align 8 dereferenceable(1288) %11, i32 noundef %9)
  br label %_ZN24SaveMeshAttributesDialog15shouldBeEnabledEiii.exit

_ZN24SaveMeshAttributesDialog15shouldBeEnabledEiii.exit: ; preds = %5, %8
  %.0.i = phi i1 [ false, %5 ], [ %12, %8 ]
  tail call void @_ZN7QWidget10setEnabledEb(ptr noundef nonnull align 8 dereferenceable(48) %1, i1 noundef zeroext %.0.i)
  %13 = getelementptr inbounds i8, ptr %0, i64 56
  %14 = load ptr, ptr %13, align 8
  %15 = tail call noundef i32 @_ZN9MeshModel5io2mmEi(i32 noundef %2)
  %16 = tail call noundef zeroext i1 @_ZNK9MeshModel11hasDataMaskEi(ptr noundef nonnull align 8 dereferenceable(1288) %14, i32 noundef %15)
  %17 = and i32 %4, %2
  %18 = icmp ne i32 %17, 0
  %.0.i8 = and i1 %18, %16
  tail call void @_ZN15QAbstractButton10setCheckedEb(ptr noundef nonnull align 8 dereferenceable(48) %1, i1 noundef zeroext %.0.i8)
  ret void
}